Certificate:
    Data:
        Version: 3 (0x2)
        Serial Number: 1 (0x1)
        Signature Algorithm: sha256WithRSAEncryption
        Issuer: CN=devcert
        Validity
            Not Before: May  1 01:46:58 2020 GMT
            Not After : Aug  4 01:46:58 2022 GMT
        Subject: CN=localhost
        Subject Public Key Info:
            Public Key Algorithm: rsaEncryption
                RSA Public-Key: (2048 bit)
                Modulus:
                    00:bc:91:41:fe:56:1f:59:81:4f:85:a0:10:20:5f:
                    60:26:8a:b7:b7:c6:3c:0f:a3:76:7f:0b:6e:88:f1:
                    75:c9:9c:26:e7:29:15:44:3a:24:9b:0f:c3:0a:0b:
                    d4:92:2c:1e:c3:4e:56:54:ef:9a:d6:fd:1d:40:0e:
                    a3:d0:2f:35:61:e1:06:fe:9a:7a:3d:79:b4:2c:e5:
                    04:62:db:9a:15:e2:94:64:f1:97:ac:65:4c:66:8b:
                    7b:0d:05:e5:96:04:f6:09:73:bd:aa:e9:66:51:fc:
                    3c:5f:71:ae:21:3c:1b:32:c2:75:7a:65:af:83:20:
                    1f:e4:33:4e:97:0d:d2:4e:ff:b8:bd:12:fc:34:07:
                    83:8b:87:bb:05:c9:a8:84:c1:e3:c3:8b:a9:0c:27:
                    8b:5e:26:e5:56:48:b4:ee:a5:c3:9a:e0:e4:27:4a:
                    c5:0b:0d:c1:ff:51:95:67:89:07:7f:11:84:21:79:
                    5a:9d:47:38:68:60:9b:07:da:3f:d7:24:10:67:82:
                    32:76:04:8d:f3:01:1e:fb:36:86:03:ed:47:fb:37:
                    53:d9:e3:41:81:ff:85:1a:33:ca:50:d2:fa:51:02:
                    8d:6c:0b:0a:6b:23:55:18:e4:86:19:79:d0:fd:5c:
                    5f:4d:9b:6f:24:01:ee:f8:68:55:8c:78:7a:71:da:
                    98:fb
                Exponent: 65537 (0x10001)
        X509v3 extensions:
            X509v3 Basic Constraints: critical
                CA:FALSE
            X509v3 Subject Key Identifier: 
                EC:E7:6C:F6:C8:EA:F8:93:49:33:93:C3:20:84:53:C5:9C:FB:00:09
            X509v3 Authority Key Identifier: 
                keyid:2B:A5:74:12:9A:29:09:F0:23:4B:FE:81:F3:41:35:3D:0C:03:0D:E7
                DirName:/CN=devcert
                serial:7A:08:FB:94:A1:EF:CA:31:AC:09:06:D9:3E:BC:5B:76:AC:C7:66:7F

            X509v3 Key Usage: critical
                Digital Signature, Key Encipherment
            X509v3 Extended Key Usage: 
                TLS Web Server Authentication
            X509v3 Subject Alternative Name: 
                DNS:localhost, DNS:*.localhost
    Signature Algorithm: sha256WithRSAEncryption
         05:4a:50:a3:f2:29:83:3f:a5:41:7d:ee:87:a3:29:66:cb:5f:
         72:7c:98:b4:33:7f:19:db:24:cb:14:b5:bb:54:f6:97:30:31:
         88:d0:13:16:04:4a:6c:df:27:eb:76:a1:89:72:65:38:09:37:
         cd:0f:5e:ad:20:86:0f:d1:ee:03:69:51:66:fe:8a:f4:7c:27:
         36:11:c0:bd:30:b7:11:c5:df:7e:73:ef:19:95:b4:57:fc:a7:
         7e:ab:71:46:64:02:a6:8b:e0:5a:e0:27:17:e3:e1:32:12:b9:
         39:bf:e5:63:ba:df:f8:1e:6a:3d:c0:29:d8:b5:31:e0:bc:21:
         9f:80:e0:dd:07:3e:21:14:ea:d7:f5:06:4d:47:bd:3b:20:61:
         2c:53:24:47:bc:11:c8:81:31:ca:1c:d6:8b:75:d8:67:9d:5a:
         bc:0e:ce:fd:00:05:0d:a7:c7:a2:5f:1d:13:c8:6c:c2:4f:22:
         ca:10:3c:7e:13:9d:20:3e:03:07:d1:72:c6:cb:a9:33:5d:d8:
         d3:30:83:df:8a:10:0e:38:19:fb:70:a4:16:60:c7:37:8b:6c:
         c1:37:f8:4c:61:4c:ac:11:8d:d6:bf:1f:01:20:c8:c3:5e:ab:
         c3:f4:55:87:e6:c3:00:9e:7c:d1:9a:33:80:71:bb:0e:72:ee:
         1d:d8:06:5e
-----BEGIN CERTIFICATE-----
MIIDaTCCAlGgAwIBAgIBATANBgkqhkiG9w0BAQsFADASMRAwDgYDVQQDDAdkZXZj
ZXJ0MB4XDTIwMDUwMTAxNDY1OFoXDTIyMDgwNDAxNDY1OFowFDESMBAGA1UEAwwJ
bG9jYWxob3N0MIIBIjANBgkqhkiG9w0BAQEFAAOCAQ8AMIIBCgKCAQEAvJFB/lYf
WYFPhaAQIF9gJoq3t8Y8D6N2fwtuiPF1yZwm5ykVRDokmw/DCgvUkiwew05WVO+a
1v0dQA6j0C81YeEG/pp6PXm0LOUEYtuaFeKUZPGXrGVMZot7DQXllgT2CXO9qulm
Ufw8X3GuITwbMsJ1emWvgyAf5DNOlw3STv+4vRL8NAeDi4e7BcmohMHjw4upDCeL
XiblVki07qXDmuDkJ0rFCw3B/1GVZ4kHfxGEIXlanUc4aGCbB9o/1yQQZ4IydgSN
8wEe+zaGA+1H+zdT2eNBgf+FGjPKUNL6UQKNbAsKayNVGOSGGXnQ/VxfTZtvJAHu
+GhVjHh6cdqY+wIDAQABo4HHMIHEMAwGA1UdEwEB/wQCMAAwHQYDVR0OBBYEFOzn
bPbI6viTSTOTwyCEU8Wc+wAJME0GA1UdIwRGMESAFCuldBKaKQnwI0v+gfNBNT0M
Aw3noRakFDASMRAwDgYDVQQDDAdkZXZjZXJ0ghR6CPuUoe/KMawJBtk+vFt2rMdm
fzAOBgNVHQ8BAf8EBAMCBaAwEwYDVR0lBAwwCgYIKwYBBQUHAwEwIQYDVR0RBBow
GIIJbG9jYWxob3N0ggsqLmxvY2FsaG9zdDANBgkqhkiG9w0BAQsFAAOCAQEABUpQ
o/Ipgz+lQX3uh6MpZstfcnyYtDN/GdskyxS1u1T2lzAxiNATFgRKbN8n63ahiXJl
OAk3zQ9erSCGD9HuA2lRZv6K9HwnNhHAvTC3EcXffnPvGZW0V/ynfqtxRmQCpovg
WuAnF+PhMhK5Ob/lY7rf+B5qPcAp2LUx4Lwhn4Dg3Qc+IRTq1/UGTUe9OyBhLFMk
R7wRyIExyhzWi3XYZ51avA7O/QAFDafHol8dE8hswk8iyhA8fhOdID4DB9Fyxsup
M13Y0zCD34oQDjgZ+3CkFmDHN4tswTf4TGFMrBGN1r8fASDIw16rw/RVh+bDAJ58
0ZozgHG7DnLuHdgGXg==
-----END CERTIFICATE-----
